target datalayout = "e-m:e-p270:32:32-p271:32:32-p272:64:64-i64:64-i128:128-f80:128-n8:16:32:64-S128"
target triple = "x86_64-pc-linux-gnu"

@proto_register_dpnss.ett = internal global [5 x ptr] [ptr @ett_dpnss, ptr @ett_dpnss_sel_field, ptr @ett_dpnss_sic_field, ptr @ett_dpnss_ind_field, ptr @ett_dpnss_sup_str], align 16
@.str.62 = private unnamed_addr constant [39 x i8] c"Digital Private Signalling System No 1\00", align 1
@.str.63 = private unnamed_addr constant [6 x i8] c"DPNSS\00", align 1
@.str.64 = private unnamed_addr constant [6 x i8] c"dpnss\00", align 1
@proto_dpnss = internal global i32 0, align 4

; Function Attrs: null_pointer_is_valid sspstrong uwtable
define hidden void @proto_register_dpnss() #0 {
  %1 = alloca ptr, align 8
  call void @llvm.lifetime.start.p0(i64 8, ptr %1) #3
  %2 = call i32 @proto_register_protocol(ptr noundef @.str.62, ptr noundef @.str.63, ptr noundef @.str.64)
  store i32 %2, ptr @proto_dpnss, align 4
  %3 = load i32, ptr @proto_dpnss, align 4
  %4 = call ptr @register_dissector(ptr noundef @.str.64, ptr noundef @dissect_dpnss, i32 noundef %3)
  %5 = load i32, ptr @proto_dpnss, align 4
  call void @proto_register_field_array(i32 noundef %5, ptr noundef @proto_register_dpnss.hf, i32 noundef 30)
  call void @proto_register_subtree_array(ptr noundef @proto_register_dpnss.ett, i32 noundef 5)
  %6 = load i32, ptr @proto_dpnss, align 4
  %7 = call ptr @expert_register_protocol(i32 noundef %6)
  store ptr %7, ptr %1, align 8
  %8 = load ptr, ptr %1, align 8
  call void @expert_register_field_array(ptr noundef %8, ptr noundef @proto_register_dpnss.ei, i32 noundef 2)
  call void @llvm.lifetime.end.p0(i64 8, ptr %1) #3
  ret void
}