; Function Attrs: null_pointer_is_valid sspstrong uwtable
define hidden void @proto_register_dpnss() local_unnamed_addr #0 {
  %1 = tail call i32 @proto_register_protocol(ptr noundef nonnull @.str.62, ptr noundef nonnull @.str.63, ptr noundef nonnull @.str.64)
  store i32 %1, ptr @proto_dpnss, align 4
  %2 = tail call ptr @register_dissector(ptr noundef nonnull @.str.64, ptr noundef nonnull @dissect_dpnss, i32 noundef %1)
  %3 = load i32, ptr @proto_dpnss, align 4
  tail call void @proto_register_field_array(i32 noundef %3, ptr noundef nonnull @proto_register_dpnss.hf, i32 noundef 30)
  tail call void @proto_register_subtree_array(ptr noundef nonnull @proto_register_dpnss.ett, i32 noundef 5)
  %4 = load i32, ptr @proto_dpnss, align 4
  %5 = tail call ptr @expert_register_protocol(i32 noundef %4)
  tail call void @expert_register_field_array(ptr noundef %5, ptr noundef nonnull @proto_register_dpnss.ei, i32 noundef 2)
  ret void
}